	.file	"main.cpp"
	.text
	.align 2
	.globl	_ZN8DoiTuong14SetInformationENSt7__cxx1112basic_stringIcSt11char_traitsIcESaIcEEEi
	.def	_ZN8DoiTuong14SetInformationENSt7__cxx1112basic_stringIcSt11char_traitsIcESaIcEEEi;	.scl	2;	.type	32;	.endef
	.seh_proc	_ZN8DoiTuong14SetInformationENSt7__cxx1112basic_stringIcSt11char_traitsIcESaIcEEEi
_ZN8DoiTuong14SetInformationENSt7__cxx1112basic_stringIcSt11char_traitsIcESaIcEEEi:
.LFB2070:
	pushq	%rbp
	.seh_pushreg	%rbp
	movq	%rsp, %rbp
	.seh_setframe	%rbp, 0
	subq	$32, %rsp
	.seh_stackalloc	32
	.seh_endprologue
	movq	%rcx, 16(%rbp)
	movq	%rdx, 24(%rbp)
	movl	%r8d, 32(%rbp)
	movq	16(%rbp), %rax
	movq	24(%rbp), %rdx
	movq	%rax, %rcx
	call	_ZNSt7__cxx1112basic_stringIcSt11char_traitsIcESaIcEEaSERKS4_
	movq	16(%rbp), %rax
	movl	32(%rbp), %edx
	movl	%edx, 32(%rax)
	nop
	addq	$32, %rsp
	popq	%rbp
	ret
	.seh_endproc
	.section .rdata,"dr"
.LC0:
	.ascii "Ten: \0"
.LC1:
	.ascii "Tuoi: \0"
	.text
	.align 2
	.globl	_ZN8DoiTuong7DisplayEv
	.def	_ZN8DoiTuong7DisplayEv;	.scl	2;	.type	32;	.endef
	.seh_proc	_ZN8DoiTuong7DisplayEv
_ZN8DoiTuong7DisplayEv:
.LFB2071:
	pushq	%rbp
	.seh_pushreg	%rbp
	movq	%rsp, %rbp
	.seh_setframe	%rbp, 0
	subq	$32, %rsp
	.seh_stackalloc	32
	.seh_endprologue
	movq	%rcx, 16(%rbp)
	leaq	.LC0(%rip), %rax
	movq	%rax, %rdx
	movq	.refptr._ZSt4cout(%rip), %rax
	movq	%rax, %rcx
	call	_ZStlsISt11char_traitsIcEERSt13basic_ostreamIcT_ES5_PKc
	movq	%rax, %rcx
	movq	16(%rbp), %rax
	movq	%rax, %rdx
	call	_ZStlsIcSt11char_traitsIcESaIcEERSt13basic_ostreamIT_T0_ES7_RKNSt7__cxx1112basic_stringIS4_S5_T1_EE
	movq	%rax, %rcx
	movq	.refptr._ZSt4endlIcSt11char_traitsIcEERSt13basic_ostreamIT_T0_ES6_(%rip), %rax
	movq	%rax, %rdx
	call	_ZNSolsEPFRSoS_E
	leaq	.LC1(%rip), %rax
	movq	%rax, %rdx
	movq	.refptr._ZSt4cout(%rip), %rax
	movq	%rax, %rcx
	call	_ZStlsISt11char_traitsIcEERSt13basic_ostreamIcT_ES5_PKc
	movq	%rax, %rcx
	movq	16(%rbp), %rax
	movl	32(%rax), %eax
	movl	%eax, %edx
	call	_ZNSolsEi
	movq	%rax, %rcx
	movq	.refptr._ZSt4endlIcSt11char_traitsIcEERSt13basic_ostreamIT_T0_ES6_(%rip), %rax
	movq	%rax, %rdx
	call	_ZNSolsEPFRSoS_E
	nop
	addq	$32, %rsp
	popq	%rbp
	ret
	.seh_endproc
	.align 2
	.globl	_ZN8SinhVien15SetInformation1ENSt7__cxx1112basic_stringIcSt11char_traitsIcESaIcEEEii
	.def	_ZN8SinhVien15SetInformation1ENSt7__cxx1112basic_stringIcSt11char_traitsIcESaIcEEEii;	.scl	2;	.type	32;	.endef
	.seh_proc	_ZN8SinhVien15SetInformation1ENSt7__cxx1112basic_stringIcSt11char_traitsIcESaIcEEEii
_ZN8SinhVien15SetInformation1ENSt7__cxx1112basic_stringIcSt11char_traitsIcESaIcEEEii:
.LFB2072:
	pushq	%rbp
	.seh_pushreg	%rbp
	movq	%rsp, %rbp
	.seh_setframe	%rbp, 0
	subq	$32, %rsp
	.seh_stackalloc	32
	.seh_endprologue
	movq	%rcx, 16(%rbp)
	movq	%rdx, 24(%rbp)
	movl	%r8d, 32(%rbp)
	movl	%r9d, 40(%rbp)
	movq	16(%rbp), %rax
	movq	24(%rbp), %rdx
	movq	%rax, %rcx
	call	_ZNSt7__cxx1112basic_stringIcSt11char_traitsIcESaIcEEaSERKS4_
	movq	16(%rbp), %rax
	movl	32(%rbp), %edx
	movl	%edx, 32(%rax)
	movq	16(%rbp), %rax
	movl	40(%rbp), %edx
	movl	%edx, 36(%rax)
	nop
	addq	$32, %rsp
	popq	%rbp
	ret
	.seh_endproc
	.section .rdata,"dr"
.LC2:
	.ascii "MSSV: \0"
	.text
	.align 2
	.globl	_ZN8SinhVien8Display1Ev
	.def	_ZN8SinhVien8Display1Ev;	.scl	2;	.type	32;	.endef
	.seh_proc	_ZN8SinhVien8Display1Ev
_ZN8SinhVien8Display1Ev:
.LFB2073:
	pushq	%rbp
	.seh_pushreg	%rbp
	movq	%rsp, %rbp
	.seh_setframe	%rbp, 0
	subq	$32, %rsp
	.seh_stackalloc	32
	.seh_endprologue
	movq	%rcx, 16(%rbp)
	leaq	.LC0(%rip), %rax
	movq	%rax, %rdx
	movq	.refptr._ZSt4cout(%rip), %rax
	movq	%rax, %rcx
	call	_ZStlsISt11char_traitsIcEERSt13basic_ostreamIcT_ES5_PKc
	movq	%rax, %rcx
	movq	16(%rbp), %rax
	movq	%rax, %rdx
	call	_ZStlsIcSt11char_traitsIcESaIcEERSt13basic_ostreamIT_T0_ES7_RKNSt7__cxx1112basic_stringIS4_S5_T1_EE
	movq	%rax, %rcx
	movq	.refptr._ZSt4endlIcSt11char_traitsIcEERSt13basic_ostreamIT_T0_ES6_(%rip), %rax
	movq	%rax, %rdx
	call	_ZNSolsEPFRSoS_E
	leaq	.LC1(%rip), %rax
	movq	%rax, %rdx
	movq	.refptr._ZSt4cout(%rip), %rax
	movq	%rax, %rcx
	call	_ZStlsISt11char_traitsIcEERSt13basic_ostreamIcT_ES5_PKc
	movq	%rax, %rcx
	movq	16(%rbp), %rax
	movl	32(%rax), %eax
	movl	%eax, %edx
	call	_ZNSolsEi
	movq	%rax, %rcx
	movq	.refptr._ZSt4endlIcSt11char_traitsIcEERSt13basic_ostreamIT_T0_ES6_(%rip), %rax
	movq	%rax, %rdx
	call	_ZNSolsEPFRSoS_E
	leaq	.LC2(%rip), %rax
	movq	%rax, %rdx
	movq	.refptr._ZSt4cout(%rip), %rax
	movq	%rax, %rcx
	call	_ZStlsISt11char_traitsIcEERSt13basic_ostreamIcT_ES5_PKc
	movq	%rax, %rcx
	movq	16(%rbp), %rax
	movl	36(%rax), %eax
	movl	%eax, %edx
	call	_ZNSolsEi
	movq	%rax, %rcx
	movq	.refptr._ZSt4endlIcSt11char_traitsIcEERSt13basic_ostreamIT_T0_ES6_(%rip), %rax
	movq	%rax, %rdx
	call	_ZNSolsEPFRSoS_E
	nop
	addq	$32, %rsp
	popq	%rbp
	ret
	.seh_endproc
	.section .rdata,"dr"
.LC3:
	.ascii "Tong a va b: \0"
	.section	.text$_ZN7ToanHoc4TongEii,"x"
	.linkonce discard
	.align 2
	.globl	_ZN7ToanHoc4TongEii
	.def	_ZN7ToanHoc4TongEii;	.scl	2;	.type	32;	.endef
	.seh_proc	_ZN7ToanHoc4TongEii
_ZN7ToanHoc4TongEii:
.LFB2074:
	pushq	%rbp
	.seh_pushreg	%rbp
	movq	%rsp, %rbp
	.seh_setframe	%rbp, 0
	subq	$32, %rsp
	.seh_stackalloc	32
	.seh_endprologue
	movq	%rcx, 16(%rbp)
	movl	%edx, 24(%rbp)
	movl	%r8d, 32(%rbp)
	leaq	.LC3(%rip), %rax
	movq	%rax, %rdx
	movq	.refptr._ZSt4cout(%rip), %rax
	movq	%rax, %rcx
	call	_ZStlsISt11char_traitsIcEERSt13basic_ostreamIcT_ES5_PKc
	movq	%rax, %rcx
	movl	24(%rbp), %edx
	movl	32(%rbp), %eax
	addl	%edx, %eax
	movl	%eax, %edx
	call	_ZNSolsEi
	movq	%rax, %rcx
	movq	.refptr._ZSt4endlIcSt11char_traitsIcEERSt13basic_ostreamIT_T0_ES6_(%rip), %rax
	movq	%rax, %rdx
	call	_ZNSolsEPFRSoS_E
	nop
	addq	$32, %rsp
	popq	%rbp
	ret
	.seh_endproc
	.section .rdata,"dr"
.LC4:
	.ascii "Tong a, b va c: \0"
	.section	.text$_ZN7ToanHoc4TongEiii,"x"
	.linkonce discard
	.align 2
	.globl	_ZN7ToanHoc4TongEiii
	.def	_ZN7ToanHoc4TongEiii;	.scl	2;	.type	32;	.endef
	.seh_proc	_ZN7ToanHoc4TongEiii
_ZN7ToanHoc4TongEiii:
.LFB2075:
	pushq	%rbp
	.seh_pushreg	%rbp
	movq	%rsp, %rbp
	.seh_setframe	%rbp, 0
	subq	$32, %rsp
	.seh_stackalloc	32
	.seh_endprologue
	movq	%rcx, 16(%rbp)
	movl	%edx, 24(%rbp)
	movl	%r8d, 32(%rbp)
	movl	%r9d, 40(%rbp)
	leaq	.LC4(%rip), %rax
	movq	%rax, %rdx
	movq	.refptr._ZSt4cout(%rip), %rax
	movq	%rax, %rcx
	call	_ZStlsISt11char_traitsIcEERSt13basic_ostreamIcT_ES5_PKc
	movq	%rax, %rcx
	movl	24(%rbp), %edx
	movl	32(%rbp), %eax
	addl	%eax, %edx
	movl	40(%rbp), %eax
	addl	%edx, %eax
	movl	%eax, %edx
	call	_ZNSolsEi
	movq	%rax, %rcx
	movq	.refptr._ZSt4endlIcSt11char_traitsIcEERSt13basic_ostreamIT_T0_ES6_(%rip), %rax
	movq	%rax, %rdx
	call	_ZNSolsEPFRSoS_E
	nop
	addq	$32, %rsp
	popq	%rbp
	ret
	.seh_endproc
	.section	.text$_ZN7ToanHoc4TongEid,"x"
	.linkonce discard
	.align 2
	.globl	_ZN7ToanHoc4TongEid
	.def	_ZN7ToanHoc4TongEid;	.scl	2;	.type	32;	.endef
	.seh_proc	_ZN7ToanHoc4TongEid
_ZN7ToanHoc4TongEid:
.LFB2076:
	pushq	%rbp
	.seh_pushreg	%rbp
	movq	%rsp, %rbp
	.seh_setframe	%rbp, 0
	.seh_endprologue
	movq	%rcx, 16(%rbp)
	movl	%edx, 24(%rbp)
	movsd	%xmm2, 32(%rbp)
	movsd	32(%rbp), %xmm0
	cvttsd2sil	%xmm0, %edx
	movl	24(%rbp), %eax
	addl	%edx, %eax
	popq	%rbp
	ret
	.seh_endproc
	.def	__main;	.scl	2;	.type	32;	.endef
	.text
	.globl	main
	.def	main;	.scl	2;	.type	32;	.endef
	.seh_proc	main
main:
.LFB2077:
	pushq	%rbp
	.seh_pushreg	%rbp
	pushq	%rbx
	.seh_pushreg	%rbx
	subq	$56, %rsp
	.seh_stackalloc	56
	leaq	48(%rsp), %rbp
	.seh_setframe	%rbp, 48
	.seh_endprologue
	movl	%ecx, 32(%rbp)
	movq	%rdx, 40(%rbp)
	call	__main
	leaq	-1(%rbp), %rax
	movl	$9, %r8d
	movl	$8, %edx
	movq	%rax, %rcx
	call	_ZN7ToanHoc4TongEii
	leaq	-1(%rbp), %rax
	movl	$9, %r9d
	movl	$9, %r8d
	movl	$2, %edx
	movq	%rax, %rcx
	call	_ZN7ToanHoc4TongEiii
	leaq	.LC3(%rip), %rax
	movq	%rax, %rdx
	movq	.refptr._ZSt4cout(%rip), %rax
	movq	%rax, %rcx
	call	_ZStlsISt11char_traitsIcEERSt13basic_ostreamIcT_ES5_PKc
	movq	%rax, %rbx
	movsd	.LC5(%rip), %xmm0
	leaq	-1(%rbp), %rax
	movapd	%xmm0, %xmm2
	movl	$5, %edx
	movq	%rax, %rcx
	call	_ZN7ToanHoc4TongEid
	movl	%eax, %edx
	movq	%rbx, %rcx
	call	_ZNSolsEi
	movq	%rax, %rcx
	movq	.refptr._ZSt4endlIcSt11char_traitsIcEERSt13basic_ostreamIT_T0_ES6_(%rip), %rax
	movq	%rax, %rdx
	call	_ZNSolsEPFRSoS_E
	movl	$0, %eax
	addq	$56, %rsp
	popq	%rbx
	popq	%rbp
	ret
	.seh_endproc
	.section .rdata,"dr"
_ZNSt8__detail30__integer_to_chars_is_unsignedIjEE:
	.byte	1
_ZNSt8__detail30__integer_to_chars_is_unsignedImEE:
	.byte	1
_ZNSt8__detail30__integer_to_chars_is_unsignedIyEE:
	.byte	1
	.align 8
.LC5:
	.long	858993459
	.long	1076704051
	.ident	"GCC: (Rev6, Built by MSYS2 project) 13.1.0"
	.def	_ZNSt7__cxx1112basic_stringIcSt11char_traitsIcESaIcEEaSERKS4_;	.scl	2;	.type	32;	.endef
	.def	_ZStlsISt11char_traitsIcEERSt13basic_ostreamIcT_ES5_PKc;	.scl	2;	.type	32;	.endef
	.def	_ZStlsIcSt11char_traitsIcESaIcEERSt13basic_ostreamIT_T0_ES7_RKNSt7__cxx1112basic_stringIS4_S5_T1_EE;	.scl	2;	.type	32;	.endef
	.def	_ZNSolsEPFRSoS_E;	.scl	2;	.type	32;	.endef
	.def	_ZNSolsEi;	.scl	2;	.type	32;	.endef
	.section	.rdata$.refptr._ZSt4endlIcSt11char_traitsIcEERSt13basic_ostreamIT_T0_ES6_, "dr"
	.globl	.refptr._ZSt4endlIcSt11char_traitsIcEERSt13basic_ostreamIT_T0_ES6_
	.linkonce	discard
.refptr._ZSt4endlIcSt11char_traitsIcEERSt13basic_ostreamIT_T0_ES6_:
	.quad	_ZSt4endlIcSt11char_traitsIcEERSt13basic_ostreamIT_T0_ES6_
	.section	.rdata$.refptr._ZSt4cout, "dr"
	.globl	.refptr._ZSt4cout
	.linkonce	discard
.refptr._ZSt4cout:
	.quad	_ZSt4cout
