	.file	"main.c"
	.text
	.globl	test
	.def	test;	.scl	2;	.type	32;	.endef
	.seh_proc	test
test:
	pushq	%rbp
	.seh_pushreg	%rbp
	movq	%rsp, %rbp
	.seh_setframe	%rbp, 0
	subq	$16, %rsp
	.seh_stackalloc	16
	.seh_endprologue
	movl	$10, -4(%rbp)
	nop
	addq	$16, %rsp
	popq	%rbp
	ret
	.seh_endproc
	.globl	arr
	.data
	.align 8
arr:
	.long	1
	.long	3
	.long	5
	.text
	.globl	string
	.def	string;	.scl	2;	.type	32;	.endef
	.seh_proc	string
string:
	pushq	%rbp
	.seh_pushreg	%rbp
	movq	%rsp, %rbp
	.seh_setframe	%rbp, 0
	.seh_endprologue
	movq	%rcx, 16(%rbp)
	nop
	popq	%rbp
	ret
	.seh_endproc
	.globl	test1
	.def	test1;	.scl	2;	.type	32;	.endef
	.seh_proc	test1
test1:
	pushq	%rbp
	.seh_pushreg	%rbp
	movq	%rsp, %rbp
	.seh_setframe	%rbp, 0
	.seh_endprologue
	movl	%ecx, 16(%rbp)
	nop
	popq	%rbp
	ret
	.seh_endproc
	.def	__main;	.scl	2;	.type	32;	.endef
	.globl	main
	.def	main;	.scl	2;	.type	32;	.endef
	.seh_proc	main
main:
	pushq	%rbp
	.seh_pushreg	%rbp
	movq	%rsp, %rbp
	.seh_setframe	%rbp, 0
	subq	$48, %rsp
	.seh_stackalloc	48
	.seh_endprologue
	movl	%ecx, 16(%rbp)
	movq	%rdx, 24(%rbp)
	call	__main
	movl	$10, -16(%rbp)
	leaq	-16(%rbp), %rax
	movq	%rax, -8(%rbp)
	movl	$20, -12(%rbp)
	movl	-12(%rbp), %eax
	movl	%eax, %ecx
	call	test1
	movl	$0, %eax
	addq	$48, %rsp
	popq	%rbp
	ret
	.seh_endproc
	.ident	"GCC: (Rev6, Built by MSYS2 project) 13.1.0"
